
/tmp/tmp.2jHsulPsRo/writebacks_ery_day.s.obj:     file format elf32-littleriscv


Disassembly of section .text:

00010060 <_start>:
   10060:	00000097          	auipc	ra,0x0
   10064:	2000a083          	lw	ra,512(ra) # 10260 <DATA>
   10068:	00500a13          	li	s4,5
   1006c:	00000013          	nop
   10070:	00000117          	auipc	sp,0x0
   10074:	19010113          	addi	sp,sp,400 # 10200 <t2_s0_0>
   10078:	00000197          	auipc	gp,0x0
   1007c:	28818193          	addi	gp,gp,648 # 10300 <t3_s0_0>
   10080:	00000217          	auipc	tp,0x0
   10084:	38020213          	addi	tp,tp,896 # 10400 <t4_s0_0>
   10088:	00000297          	auipc	t0,0x0
   1008c:	47828293          	addi	t0,t0,1144 # 10500 <t5_s0_0>
   10090:	00000317          	auipc	t1,0x0
   10094:	57030313          	addi	t1,t1,1392 # 10600 <t6_s0_0>
   10098:	00000397          	auipc	t2,0x0
   1009c:	66838393          	addi	t2,t2,1640 # 10700 <t7_s0_0>
   100a0:	00000417          	auipc	s0,0x0
   100a4:	76040413          	addi	s0,s0,1888 # 10800 <t8_s0_0>
   100a8:	00001497          	auipc	s1,0x1
   100ac:	85848493          	addi	s1,s1,-1960 # 10900 <t9_s0_0>
   100b0:	00001517          	auipc	a0,0x1
   100b4:	95050513          	addi	a0,a0,-1712 # 10a00 <ta_s0_0>

000100b8 <HELL_LOOP>:
   100b8:	00112023          	sw	ra,0(sp)
   100bc:	0011a023          	sw	ra,0(gp) # 12260 <__global_pointer$>
   100c0:	00122023          	sw	ra,0(tp) # 0 <_start-0x10060>
   100c4:	0012a023          	sw	ra,0(t0)
   100c8:	00132023          	sw	ra,0(t1)
   100cc:	0013a023          	sw	ra,0(t2)
   100d0:	00142023          	sw	ra,0(s0)
   100d4:	0014a023          	sw	ra,0(s1)
   100d8:	00152023          	sw	ra,0(a0)
   100dc:	fffa0a13          	addi	s4,s4,-1
   100e0:	00108093          	addi	ra,ra,1
   100e4:	fc0a1ae3          	bnez	s4,100b8 <HELL_LOOP>
   100e8:	00000013          	nop
   100ec:	00000013          	nop
   100f0:	00000013          	nop
   100f4:	00000013          	nop
   100f8:	00000013          	nop
   100fc:	00000013          	nop

00010100 <HALT>:
   10100:	00000063          	beqz	zero,10100 <HALT>
