
/tmp/tmp.ucm9QzoFLJ/mp3-cp3.s.obj:     file format elf32-littleriscv


Disassembly of section .text:

00010060 <_start>:
   10060:	00000a63          	beqz	zero,10074 <forward_br>
   10064:	00000397          	auipc	t2,0x0
   10068:	1b43a383          	lw	t2,436(t2) # 10218 <BAD>

0001006c <backward_br>:
   1006c:	00000a63          	beqz	zero,10080 <not_taken_branches>
   10070:	0a000c63          	beqz	zero,10128 <oof>

00010074 <forward_br>:
   10074:	fe000ce3          	beqz	zero,1006c <backward_br>
   10078:	00000397          	auipc	t2,0x0
   1007c:	1a03a383          	lw	t2,416(t2) # 10218 <BAD>

00010080 <not_taken_branches>:
   10080:	00100093          	li	ra,1
   10084:	0a100263          	beq	zero,ra,10128 <oof>
   10088:	0a000a63          	beqz	zero,1013c <backward_br_nt>

0001008c <forwarding_tests>:
   1008c:	00118193          	addi	gp,gp,1 # 11aa1 <__global_pointer$+0x1>
   10090:	00008013          	mv	zero,ra
   10094:	00000113          	li	sp,0
   10098:	08310863          	beq	sp,gp,10128 <oof>
   1009c:	00008113          	mv	sp,ra
   100a0:	00208193          	addi	gp,ra,2
   100a4:	00300213          	li	tp,3
   100a8:	08419063          	bne	gp,tp,10128 <oof>
   100ac:	00000097          	auipc	ra,0x0
   100b0:	17c0a083          	lw	ra,380(ra) # 10228 <NOPE>
   100b4:	00000097          	auipc	ra,0x0
   100b8:	16c0a083          	lw	ra,364(ra) # 10220 <A>
   100bc:	000082b3          	add	t0,ra,zero
   100c0:	06129463          	bne	t0,ra,10128 <oof>
   100c4:	00108193          	addi	gp,ra,1
   100c8:	00000417          	auipc	s0,0x0
   100cc:	16440413          	addi	s0,s0,356 # 1022c <TEST>
   100d0:	00342023          	sw	gp,0(s0)
   100d4:	00000217          	auipc	tp,0x0
   100d8:	15822203          	lw	tp,344(tp) # 1022c <TEST>
   100dc:	04321663          	bne	tp,gp,10128 <oof>
   100e0:	00000117          	auipc	sp,0x0
   100e4:	15011103          	lh	sp,336(sp) # 10230 <FULL>
   100e8:	fff00193          	li	gp,-1
   100ec:	02219e63          	bne	gp,sp,10128 <oof>
   100f0:	00300213          	li	tp,3
   100f4:	00000117          	auipc	sp,0x0
   100f8:	14c12103          	lw	sp,332(sp) # 10240 <B>
   100fc:	00110193          	addi	gp,sp,1
   10100:	02321463          	bne	tp,gp,10128 <oof>
   10104:	00100113          	li	sp,1
   10108:	00200113          	li	sp,2
   1010c:	00110193          	addi	gp,sp,1
   10110:	00218c63          	beq	gp,sp,10128 <oof>
   10114:	00000397          	auipc	t2,0x0
   10118:	1103a383          	lw	t2,272(t2) # 10224 <GOOD>

0001011c <halt>:
   1011c:	00000063          	beqz	zero,1011c <halt>
   10120:	00000397          	auipc	t2,0x0
   10124:	0f83a383          	lw	t2,248(t2) # 10218 <BAD>

00010128 <oof>:
   10128:	00000397          	auipc	t2,0x0
   1012c:	0f03a383          	lw	t2,240(t2) # 10218 <BAD>
   10130:	00000117          	auipc	sp,0x0
   10134:	0ec12103          	lw	sp,236(sp) # 1021c <PAY_RESPECTS>
   10138:	fe0002e3          	beqz	zero,1011c <halt>

0001013c <backward_br_nt>:
   1013c:	fe1006e3          	beq	zero,ra,10128 <oof>
   10140:	f40006e3          	beqz	zero,1008c <forwarding_tests>

Disassembly of section .rodata:

00010200 <DataSeg>:
   10200:	00000013          	nop
   10204:	00000013          	nop
   10208:	00000013          	nop
   1020c:	00000013          	nop
   10210:	00000013          	nop
   10214:	00000013          	nop

00010218 <BAD>:
   10218:	dbad                	beqz	a5,1018a <backward_br_nt+0x4e>
   1021a:	00ba                	slli	ra,ra,0xe

0001021c <PAY_RESPECTS>:
   1021c:	ffff                	0xffff
   1021e:	ffff                	0xffff

00010220 <A>:
   10220:	0001                	nop
	...

00010224 <GOOD>:
   10224:	600d                	c.lui	zero,0x3
   10226:	600d                	c.lui	zero,0x3

00010228 <NOPE>:
   10228:	dbad                	beqz	a5,1019a <backward_br_nt+0x5e>
   1022a:	00ba                	slli	ra,ra,0xe

0001022c <TEST>:
   1022c:	0000                	unimp
	...

00010230 <FULL>:
   10230:	ffff                	0xffff
   10232:	ffff                	0xffff
   10234:	00000013          	nop
   10238:	00000013          	nop
   1023c:	00000013          	nop

00010240 <B>:
   10240:	0002                	c.slli	zero,0x0
   10242:	0000                	unimp
   10244:	00000013          	nop
   10248:	00000013          	nop
   1024c:	00000013          	nop
   10250:	00000013          	nop
   10254:	00000013          	nop
   10258:	00000013          	nop
   1025c:	00000013          	nop

00010260 <C>:
   10260:	00000003          	lb	zero,0(zero) # 3000 <_start-0xd060>
   10264:	00000013          	nop
   10268:	00000013          	nop
   1026c:	00000013          	nop
   10270:	00000013          	nop
   10274:	00000013          	nop
   10278:	00000013          	nop
   1027c:	00000013          	nop

00010280 <D>:
   10280:	0004                	0x4
   10282:	0000                	unimp
   10284:	00000013          	nop
   10288:	00000013          	nop
   1028c:	00000013          	nop
   10290:	00000013          	nop
   10294:	00000013          	nop
   10298:	00000013          	nop
   1029c:	00000013          	nop
0000000 0a63 0000 0397 0000 a383 1b43 0a63 0000
0000010 0c63 0a00 0ce3 fe00 0397 0000 a383 1a03
0000020 0093 0010 0263 0a10 0a63 0a00 8193 0011
0000030 8013 0000 0113 0000 0863 0831 8113 0000
0000040 8193 0020 0213 0030 9063 0841 0097 0000
0000050 a083 17c0 0097 0000 a083 16c0 82b3 0000
0000060 9463 0612 8193 0010 0417 0000 0413 1644
0000070 2023 0034 0217 0000 2203 1582 1663 0432
0000080 0117 0000 1103 1501 0193 fff0 9e63 0221
0000090 0213 0030 0117 0000 2103 14c1 0193 0011
00000a0 1463 0232 0113 0010 0113 0020 0193 0011
00000b0 8c63 0021 0397 0000 a383 1103 0063 0000
00000c0 0397 0000 a383 0f83 0397 0000 a383 0f03
00000d0 0117 0000 2103 0ec1 02e3 fe00 06e3 fe10
00000e0 06e3 f400 0000 0000 0000 0000 0000 0000
00000f0 0000 0000 0000 0000 0000 0000 0000 0000
*
00001a0 0013 0000 0013 0000 0013 0000 0013 0000
00001b0 0013 0000 0013 0000 dbad 00ba ffff ffff
00001c0 0001 0000 600d 600d dbad 00ba 0000 0000
00001d0 ffff ffff 0013 0000 0013 0000 0013 0000
00001e0 0002 0000 0013 0000 0013 0000 0013 0000
00001f0 0013 0000 0013 0000 0013 0000 0013 0000
0000200 0003 0000 0013 0000 0013 0000 0013 0000
0000210 0013 0000 0013 0000 0013 0000 0013 0000
0000220 0004 0000 0013 0000 0013 0000 0013 0000
0000230 0013 0000 0013 0000 0013 0000 0013 0000
0000240
Target file /home/jlbrown5/ece411/mp3/simulation/modelsim/memory.lst exists.
